Certificate:
    Data:
        Version: 3 (0x2)
        Serial Number: 268435667 (0x100000d3)
        Signature Algorithm: sha256WithRSAEncryption
        Issuer: C=DE, ST=Hessen, O=privacyidea, CN=CA001
        Validity
            Not Before: Jun 18 10:22:58 2022 GMT
            Not After : Jun 18 10:22:58 2023 GMT
        Subject: C=DE, ST=Hessen, O=privacyidea, CN=requester.localdomain
        Subject Public Key Info:
            Public Key Algorithm: rsaEncryption
                RSA Public-Key: (2048 bit)
                Modulus:
                    00:cd:be:14:4f:fa:ce:01:3f:42:22:1b:1d:9c:af:
                    dd:92:d2:7f:db:6c:b7:3e:39:43:43:6b:13:03:f1:
                    05:f4:07:74:bc:76:69:28:0b:af:19:8e:d7:fc:e3:
                    cd:c6:58:f2:ca:7f:08:6d:53:fc:07:02:44:24:c6:
                    b4:34:4c:8c:04:fe:33:0e:40:e2:20:ba:02:73:5a:
                    f7:f5:4f:63:6e:cc:c6:b6:df:54:1d:37:39:7d:51:
                    36:26:5f:bd:dc:3f:a8:8b:6b:a2:ae:b6:9d:d6:21:
                    e7:df:41:b8:7a:28:2a:68:48:ca:a8:2d:ed:e1:e9:
                    46:5e:5a:72:6d:b4:84:38:87:91:fd:94:11:0b:28:
                    84:c6:c2:2f:2a:fb:01:f9:36:7a:09:75:d1:33:88:
                    3c:73:41:5b:c8:bf:94:89:70:a1:f0:c0:b9:2e:50:
                    53:1e:b1:17:64:69:f4:2d:81:e0:a9:0d:0e:32:e9:
                    ba:55:8a:85:f1:1b:6f:49:79:b4:7f:88:c3:0d:3e:
                    54:88:9b:3d:1f:38:8c:04:f3:ee:6a:63:2b:f5:c6:
                    db:b4:83:aa:c4:78:41:3a:7d:4b:e1:c8:3e:71:ca:
                    1b:61:59:ea:c6:c4:ca:32:5e:c9:e9:bf:12:29:e6:
                    c6:c3:63:fe:a0:55:da:7a:f1:60:98:4d:26:ed:fa:
                    70:2d
                Exponent: 65537 (0x10001)
        X509v3 extensions:
            X509v3 Key Usage: 
                Digital Signature, Key Encipherment
            X509v3 Basic Constraints: 
                CA:FALSE
            Netscape Cert Type: 
                SSL Server
            Netscape Comment: 
                OpenSSL Generated Server Certificate
            X509v3 Subject Key Identifier: 
                53:3F:ED:5D:09:07:B3:65:7B:AB:45:C9:24:5B:09:77:80:0A:96:ED
            X509v3 Authority Key Identifier: 
                keyid:F4:A7:C0:CC:91:46:AF:64:F3:91:F2:27:F8:C8:B2:6F:8A:87:32:73
                DirName:/C=DE/ST=Hessen/O=privacyidea/CN=CA001
                serial:FB:C8:EB:AC:83:CD:12:07

            X509v3 Extended Key Usage: 
                TLS Web Server Authentication
    Signature Algorithm: sha256WithRSAEncryption
         2f:86:ef:2f:c1:8e:b2:44:4b:c9:6e:f5:21:2e:56:84:17:6f:
         52:44:50:05:a0:04:1f:c5:d6:7d:f6:ea:70:62:ff:54:df:03:
         5e:2c:6e:08:46:87:84:21:b6:55:3e:dc:b7:34:82:b7:dd:46:
         89:5b:4d:07:e9:87:96:01:c1:6a:43:8c:f4:10:6d:f2:9d:85:
         10:f8:2f:cc:62:45:b2:5a:7b:ec:7d:a0:d0:76:eb:83:46:c5:
         87:54:eb:27:cb:7a:26:85:ae:7e:af:fc:5e:86:5e:b6:b4:5a:
         9d:ec:bf:cb:25:d0:00:ce:aa:7a:74:89:ad:54:f6:28:14:04:
         76:0c:3d:de:23:0e:0b:16:cd:39:64:f0:b8:66:7d:24:1b:7e:
         c5:d1:c3:c3:9f:e7:bb:b0:df:8f:32:c9:a6:db:e5:34:3c:63:
         43:0f:45:29:c1:26:57:d1:30:c2:ec:7b:fb:af:be:e3:87:59:
         4a:e8:fc:5a:52:23:e4:9b:c8:6c:77:b4:f2:21:f7:b1:98:d8:
         b4:1b:cc:08:d5:92:10:bc:a6:84:a6:8b:4d:16:35:89:ba:60:
         3a:6c:69:d3:6a:ea:79:15:58:d4:a3:0b:75:86:26:c0:53:1b:
         fc:71:91:ec:1e:0e:7f:f4:7a:a7:4a:ba:32:c4:81:ab:f4:0a:
         7d:83:3a:62
-----BEGIN CERTIFICATE-----
MIIEJjCCAw6gAwIBAgIEEAAA0zANBgkqhkiG9w0BAQsFADBEMQswCQYDVQQGEwJE
RTEPMA0GA1UECAwGSGVzc2VuMRQwEgYDVQQKDAtwcml2YWN5aWRlYTEOMAwGA1UE
AwwFQ0EwMDEwHhcNMjIwNjE4MTAyMjU4WhcNMjMwNjE4MTAyMjU4WjBUMQswCQYD
VQQGEwJERTEPMA0GA1UECAwGSGVzc2VuMRQwEgYDVQQKDAtwcml2YWN5aWRlYTEe
MBwGA1UEAwwVcmVxdWVzdGVyLmxvY2FsZG9tYWluMIIBIjANBgkqhkiG9w0BAQEF
AAOCAQ8AMIIBCgKCAQEAzb4UT/rOAT9CIhsdnK/dktJ/22y3PjlDQ2sTA/EF9Ad0
vHZpKAuvGY7X/OPNxljyyn8IbVP8BwJEJMa0NEyMBP4zDkDiILoCc1r39U9jbszG
tt9UHTc5fVE2Jl+93D+oi2uirrad1iHn30G4eigqaEjKqC3t4elGXlpybbSEOIeR
/ZQRCyiExsIvKvsB+TZ6CXXRM4g8c0FbyL+UiXCh8MC5LlBTHrEXZGn0LYHgqQ0O
Mum6VYqF8RtvSXm0f4jDDT5UiJs9HziMBPPuamMr9cbbtIOqxHhBOn1L4cg+ccob
YVnqxsTKMl7J6b8SKebGw2P+oFXaevFgmE0m7fpwLQIDAQABo4IBDjCCAQowCwYD
VR0PBAQDAgWgMAkGA1UdEwQCMAAwEQYJYIZIAYb4QgEBBAQDAgZAMDMGCWCGSAGG
+EIBDQQmFiRPcGVuU1NMIEdlbmVyYXRlZCBTZXJ2ZXIgQ2VydGlmaWNhdGUwHQYD
VR0OBBYEFFM/7V0JB7Nle6tFySRbCXeACpbtMHQGA1UdIwRtMGuAFPSnwMyRRq9k
85HyJ/jIsm+KhzJzoUikRjBEMQswCQYDVQQGEwJERTEPMA0GA1UECAwGSGVzc2Vu
MRQwEgYDVQQKDAtwcml2YWN5aWRlYTEOMAwGA1UEAwwFQ0EwMDGCCQD7yOusg80S
BzATBgNVHSUEDDAKBggrBgEFBQcDATANBgkqhkiG9w0BAQsFAAOCAQEAL4bvL8GO
skRLyW71IS5WhBdvUkRQBaAEH8XWffbqcGL/VN8DXixuCEaHhCG2VT7ctzSCt91G
iVtNB+mHlgHBakOM9BBt8p2FEPgvzGJFslp77H2g0Hbrg0bFh1TrJ8t6JoWufq/8
XoZetrRaney/yyXQAM6qenSJrVT2KBQEdgw93iMOCxbNOWTwuGZ9JBt+xdHDw5/n
u7DfjzLJptvlNDxjQw9FKcEmV9Ewwux7+6++44dZSuj8WlIj5JvIbHe08iH3sZjY
tBvMCNWSELymhKaLTRY1ibpgOmxp02rqeRVY1KMLdYYmwFMb/HGR7B4Of/R6p0q6
MsSBq/QKfYM6Yg==
-----END CERTIFICATE-----
