Certificate:
    Data:
        Version: 3 (0x2)
        Serial Number: 268435668 (0x100000d4)
        Signature Algorithm: sha256WithRSAEncryption
        Issuer: C=DE, ST=Hessen, O=privacyidea, CN=CA001
        Validity
            Not Before: Jun 18 10:22:58 2022 GMT
            Not After : Jun 18 10:22:58 2023 GMT
        Subject: CN=cn=cornelius
        Subject Public Key Info:
            Public Key Algorithm: rsaEncryption
                RSA Public-Key: (2048 bit)
                Modulus:
                    00:ce:a4:39:30:25:73:e4:9d:e6:37:3b:85:59:83:
                    ef:a3:6e:f9:83:b9:f7:48:b0:0b:d5:e8:05:40:61:
                    cd:c5:5a:bc:11:2f:5b:4e:d0:4f:b8:d0:e8:7f:05:
                    ab:ad:24:0b:90:d4:3f:60:ec:15:b6:4e:be:8e:d9:
                    26:ab:f2:2f:7f:35:c2:a6:a1:bc:52:3a:d9:88:fb:
                    b3:fa:71:20:b9:51:0e:f8:af:0d:16:be:bd:5d:b9:
                    ab:30:d5:ac:6b:3c:bc:ee:28:4a:4f:6f:d4:09:15:
                    f7:98:af:77:db:36:15:2e:1e:ee:0f:d0:d9:60:ad:
                    db:b9:c4:3f:c6:25:32:f9:e3:e9:50:b8:ec:84:a0:
                    c4:d2:9c:fd:ce:25:80:85:7e:3a:ad:4c:a7:40:1b:
                    0a:58:18:9f:c2:5e:36:e1:d1:44:e9:46:b6:dc:b4:
                    28:a2:ec:ed:02:f7:25:79:e1:86:8e:69:67:52:ee:
                    82:21:b7:84:2d:cc:e7:a8:39:57:7d:a3:1e:e9:50:
                    63:77:29:ab:e4:a5:ff:dc:ee:4c:4b:5e:08:2b:62:
                    08:2d:75:b8:26:6c:93:eb:f5:45:ea:cd:83:58:53:
                    15:46:e6:6b:43:c1:2f:d9:88:4b:3d:d5:fd:0c:ff:
                    51:52:ed:54:fb:27:2d:59:ef:4c:50:ce:71:cd:eb:
                    5a:99
                Exponent: 65537 (0x10001)
        X509v3 extensions:
            X509v3 Key Usage: 
                Digital Signature, Key Encipherment
            X509v3 Basic Constraints: 
                CA:FALSE
            Netscape Cert Type: 
                SSL Server
            Netscape Comment: 
                OpenSSL Generated Server Certificate
            X509v3 Subject Key Identifier: 
                0E:D5:BA:4E:7D:92:57:15:FD:61:4E:34:5B:E9:62:D0:20:1C:7D:08
            X509v3 Authority Key Identifier: 
                keyid:F4:A7:C0:CC:91:46:AF:64:F3:91:F2:27:F8:C8:B2:6F:8A:87:32:73
                DirName:/C=DE/ST=Hessen/O=privacyidea/CN=CA001
                serial:FB:C8:EB:AC:83:CD:12:07

            X509v3 Extended Key Usage: 
                TLS Web Server Authentication
    Signature Algorithm: sha256WithRSAEncryption
         3d:77:2c:c3:52:8f:54:5a:cf:23:7b:f5:a4:fc:3a:52:b1:a6:
         5c:43:8c:a0:d9:9d:be:f8:fd:5c:97:02:1a:9b:56:3a:28:09:
         c4:72:bd:ce:b3:58:94:34:a5:26:0d:00:b9:4a:29:02:f9:77:
         e5:d7:e5:39:9b:6f:ab:59:09:82:80:53:3f:ba:3e:a6:93:83:
         0e:78:13:ae:88:85:c0:3c:de:91:11:ce:05:ed:ce:c3:8e:59:
         b4:4a:8f:8c:45:18:77:35:3f:04:27:45:17:bb:02:e5:ee:10:
         a7:d1:d4:04:7b:b5:c2:e2:27:66:03:e0:ff:8d:8a:35:27:96:
         b3:d7:dd:a5:9b:f3:64:f4:94:1f:5d:19:59:d8:38:a4:8f:87:
         9b:4d:7c:1c:d8:a9:d6:bf:df:83:53:40:cd:c6:31:7b:01:d2:
         5b:6d:31:77:e5:7f:25:0d:ae:a8:e4:c3:d4:41:c1:d7:1e:55:
         f5:72:df:ab:2c:3f:8e:2d:df:6a:26:89:ab:e9:b4:35:23:ed:
         78:79:3f:f2:f2:fa:62:18:96:c6:30:fc:be:27:a3:bd:2d:82:
         f2:28:96:e7:50:3b:10:6a:9b:de:0f:5c:cf:d3:af:98:d4:0a:
         29:aa:85:66:fe:25:28:0c:c3:94:3a:0b:c8:97:4e:b9:26:93:
         92:80:26:5f
-----BEGIN CERTIFICATE-----
MIID6TCCAtGgAwIBAgIEEAAA1DANBgkqhkiG9w0BAQsFADBEMQswCQYDVQQGEwJE
RTEPMA0GA1UECAwGSGVzc2VuMRQwEgYDVQQKDAtwcml2YWN5aWRlYTEOMAwGA1UE
AwwFQ0EwMDEwHhcNMjIwNjE4MTAyMjU4WhcNMjMwNjE4MTAyMjU4WjAXMRUwEwYD
VQQDDAxjbj1jb3JuZWxpdXMwggEiMA0GCSqGSIb3DQEBAQUAA4IBDwAwggEKAoIB
AQDOpDkwJXPkneY3O4VZg++jbvmDufdIsAvV6AVAYc3FWrwRL1tO0E+40Oh/Baut
JAuQ1D9g7BW2Tr6O2Sar8i9/NcKmobxSOtmI+7P6cSC5UQ74rw0Wvr1duasw1axr
PLzuKEpPb9QJFfeYr3fbNhUuHu4P0Nlgrdu5xD/GJTL54+lQuOyEoMTSnP3OJYCF
fjqtTKdAGwpYGJ/CXjbh0UTpRrbctCii7O0C9yV54YaOaWdS7oIht4QtzOeoOVd9
ox7pUGN3Kavkpf/c7kxLXggrYggtdbgmbJPr9UXqzYNYUxVG5mtDwS/ZiEs91f0M
/1FS7VT7Jy1Z70xQznHN61qZAgMBAAGjggEOMIIBCjALBgNVHQ8EBAMCBaAwCQYD
VR0TBAIwADARBglghkgBhvhCAQEEBAMCBkAwMwYJYIZIAYb4QgENBCYWJE9wZW5T
U0wgR2VuZXJhdGVkIFNlcnZlciBDZXJ0aWZpY2F0ZTAdBgNVHQ4EFgQUDtW6Tn2S
VxX9YU40W+li0CAcfQgwdAYDVR0jBG0wa4AU9KfAzJFGr2TzkfIn+Miyb4qHMnOh
SKRGMEQxCzAJBgNVBAYTAkRFMQ8wDQYDVQQIDAZIZXNzZW4xFDASBgNVBAoMC3By
aXZhY3lpZGVhMQ4wDAYDVQQDDAVDQTAwMYIJAPvI66yDzRIHMBMGA1UdJQQMMAoG
CCsGAQUFBwMBMA0GCSqGSIb3DQEBCwUAA4IBAQA9dyzDUo9UWs8je/Wk/DpSsaZc
Q4yg2Z2++P1clwIam1Y6KAnEcr3Os1iUNKUmDQC5SikC+Xfl1+U5m2+rWQmCgFM/
uj6mk4MOeBOuiIXAPN6REc4F7c7Djlm0So+MRRh3NT8EJ0UXuwLl7hCn0dQEe7XC
4idmA+D/jYo1J5az192lm/Nk9JQfXRlZ2Dikj4ebTXwc2KnWv9+DU0DNxjF7AdJb
bTF35X8lDa6o5MPUQcHXHlX1ct+rLD+OLd9qJomr6bQ1I+14eT/y8vpiGJbGMPy+
J6O9LYLyKJbnUDsQapveD1zP06+Y1AopqoVm/iUoDMOUOgvIl065JpOSgCZf
-----END CERTIFICATE-----
