Certificate:
    Data:
        Version: 3 (0x2)
        Serial Number: 268435669 (0x100000d5)
        Signature Algorithm: sha256WithRSAEncryption
        Issuer: C=DE, ST=Hessen, O=privacyidea, CN=CA001
        Validity
            Not Before: Jun 18 10:22:58 2022 GMT
            Not After : Jun 18 10:22:58 2023 GMT
        Subject: OU=realm1, CN=cornelius/emailAddress=user@localhost.localdomain
        Subject Public Key Info:
            Public Key Algorithm: rsaEncryption
                RSA Public-Key: (2048 bit)
                Modulus:
                    00:b6:f1:2d:14:96:ca:c1:27:ad:69:f7:07:e6:3b:
                    12:4a:85:50:8d:d7:86:fb:0f:60:7b:c4:36:8d:65:
                    65:33:e1:92:40:62:c4:3d:e3:7c:02:35:44:72:61:
                    5a:25:fe:d0:39:2d:c5:4c:c0:25:c9:b6:5a:5d:d0:
                    4f:16:ab:98:02:19:2d:04:f0:61:46:42:52:e6:6e:
                    c5:cf:d1:1d:89:c7:74:1a:fb:db:94:35:9d:4f:86:
                    72:e9:35:84:ff:ec:a0:58:4f:49:20:0b:e2:44:05:
                    6a:f3:e6:00:77:c6:43:69:b8:9e:ac:d0:88:f0:14:
                    57:9e:a8:98:fe:fe:c8:b5:de:76:d4:24:52:64:3b:
                    0d:28:63:de:bf:7b:09:ef:61:3a:84:9e:9b:ba:b1:
                    77:93:b8:76:6e:19:b4:30:8d:42:80:d5:e1:47:84:
                    51:9f:a4:af:b4:cd:80:41:81:9a:56:8d:5b:6f:eb:
                    86:33:11:ae:84:43:ab:87:b6:7f:d2:f7:65:94:43:
                    9c:3b:be:73:f9:cc:44:2a:b5:95:51:14:3a:2c:5d:
                    55:db:6d:3c:b7:11:91:5e:a1:bf:44:65:3a:fe:8e:
                    d5:b9:23:52:ec:9e:53:f0:e8:c3:61:7c:eb:c6:96:
                    54:65:9e:b0:0b:38:a2:57:07:77:6b:f6:7a:0f:ba:
                    41:49
                Exponent: 65537 (0x10001)
        X509v3 extensions:
            X509v3 Key Usage: 
                Digital Signature, Key Encipherment
            X509v3 Basic Constraints: 
                CA:FALSE
            Netscape Cert Type: 
                SSL Server
            Netscape Comment: 
                OpenSSL Generated Server Certificate
            X509v3 Subject Key Identifier: 
                BE:D4:8F:7A:B0:09:0E:EF:D2:2D:18:AD:E0:D5:B2:24:78:E1:32:E1
            X509v3 Authority Key Identifier: 
                keyid:F4:A7:C0:CC:91:46:AF:64:F3:91:F2:27:F8:C8:B2:6F:8A:87:32:73
                DirName:/C=DE/ST=Hessen/O=privacyidea/CN=CA001
                serial:FB:C8:EB:AC:83:CD:12:07

            X509v3 Extended Key Usage: 
                TLS Web Server Authentication
    Signature Algorithm: sha256WithRSAEncryption
         5c:7d:5d:f5:ee:e4:08:39:bd:d6:de:0d:c9:3d:3c:f2:9d:ae:
         11:64:a3:6e:91:87:d2:39:e4:a0:29:75:c1:ae:da:8f:e6:ee:
         1e:5b:20:01:f1:3a:e8:27:09:1a:42:85:76:7e:b7:11:5c:bd:
         63:53:02:29:eb:b8:7e:96:c8:d9:0e:bd:05:74:c9:b7:06:59:
         37:4b:7f:6f:c2:21:d1:60:90:44:4e:8e:69:df:99:8d:a9:6d:
         87:71:82:44:b6:63:9f:86:ab:9c:da:38:c3:e9:81:8e:a1:4a:
         8a:82:2d:02:f8:d8:c0:97:cf:ed:5d:65:ac:cb:6e:8c:97:19:
         3a:35:4f:56:91:b2:a1:9a:a7:26:ac:96:6c:af:c5:61:97:75:
         a9:a8:86:18:4d:c6:7d:f1:96:a3:cc:b8:1f:e4:12:2d:66:7f:
         4e:d4:9b:a1:7a:3c:3e:9f:ec:c6:6b:65:9e:aa:cd:72:2d:1a:
         65:a3:7c:ba:45:9f:f4:ca:0d:a2:40:67:39:8d:68:81:b9:b1:
         ff:19:50:20:56:cc:bf:59:97:44:04:fa:20:98:ef:11:49:d4:
         88:f0:f6:a7:c8:e7:04:9d:b2:5b:6b:28:f9:cd:68:5d:f9:fd:
         fa:0f:86:35:58:58:14:18:43:e0:39:df:df:a7:61:d1:0f:25:
         0a:0b:ac:8d
-----BEGIN CERTIFICATE-----
MIIEIjCCAwqgAwIBAgIEEAAA1TANBgkqhkiG9w0BAQsFADBEMQswCQYDVQQGEwJE
RTEPMA0GA1UECAwGSGVzc2VuMRQwEgYDVQQKDAtwcml2YWN5aWRlYTEOMAwGA1UE
AwwFQ0EwMDEwHhcNMjIwNjE4MTAyMjU4WhcNMjMwNjE4MTAyMjU4WjBQMQ8wDQYD
VQQLDAZyZWFsbTExEjAQBgNVBAMMCWNvcm5lbGl1czEpMCcGCSqGSIb3DQEJARYa
dXNlckBsb2NhbGhvc3QubG9jYWxkb21haW4wggEiMA0GCSqGSIb3DQEBAQUAA4IB
DwAwggEKAoIBAQC28S0UlsrBJ61p9wfmOxJKhVCN14b7D2B7xDaNZWUz4ZJAYsQ9
43wCNURyYVol/tA5LcVMwCXJtlpd0E8Wq5gCGS0E8GFGQlLmbsXP0R2Jx3Qa+9uU
NZ1PhnLpNYT/7KBYT0kgC+JEBWrz5gB3xkNpuJ6s0IjwFFeeqJj+/si13nbUJFJk
Ow0oY96/ewnvYTqEnpu6sXeTuHZuGbQwjUKA1eFHhFGfpK+0zYBBgZpWjVtv64Yz
Ea6EQ6uHtn/S92WUQ5w7vnP5zEQqtZVRFDosXVXbbTy3EZFeob9EZTr+jtW5I1Ls
nlPw6MNhfOvGllRlnrALOKJXB3dr9noPukFJAgMBAAGjggEOMIIBCjALBgNVHQ8E
BAMCBaAwCQYDVR0TBAIwADARBglghkgBhvhCAQEEBAMCBkAwMwYJYIZIAYb4QgEN
BCYWJE9wZW5TU0wgR2VuZXJhdGVkIFNlcnZlciBDZXJ0aWZpY2F0ZTAdBgNVHQ4E
FgQUvtSPerAJDu/SLRit4NWyJHjhMuEwdAYDVR0jBG0wa4AU9KfAzJFGr2TzkfIn
+Miyb4qHMnOhSKRGMEQxCzAJBgNVBAYTAkRFMQ8wDQYDVQQIDAZIZXNzZW4xFDAS
BgNVBAoMC3ByaXZhY3lpZGVhMQ4wDAYDVQQDDAVDQTAwMYIJAPvI66yDzRIHMBMG
A1UdJQQMMAoGCCsGAQUFBwMBMA0GCSqGSIb3DQEBCwUAA4IBAQBcfV317uQIOb3W
3g3JPTzyna4RZKNukYfSOeSgKXXBrtqP5u4eWyAB8TroJwkaQoV2frcRXL1jUwIp
67h+lsjZDr0FdMm3Blk3S39vwiHRYJBETo5p35mNqW2HcYJEtmOfhquc2jjD6YGO
oUqKgi0C+NjAl8/tXWWsy26Mlxk6NU9WkbKhmqcmrJZsr8Vhl3WpqIYYTcZ98Zaj
zLgf5BItZn9O1Juhejw+n+zGa2Weqs1yLRplo3y6RZ/0yg2iQGc5jWiBubH/GVAg
Vsy/WZdEBPogmO8RSdSI8PanyOcEnbJbayj5zWhd+f36D4Y1WFgUGEPgOd/fp2HR
DyUKC6yN
-----END CERTIFICATE-----
